S'fasd'
p0
.(iCrypto.PublicKey.DSA
_DSAobj
p0
(dp2
S'y'
p3
L27397909833437779987102928170246731865387206141012428238132377348903430362977732431539154408911980749724288888908150671029970923864932024850153527853340978275623515942144221018912828377524222501731673459955483720789902909657411970924032943407781534966004356911228896468130555363689455850028676665896500593610L
sS'p'
p4
L89884656743115803926021730137035856582226982261644318752267230161491557302688898705740537283780444584371055691657435108470986132859246086763083102873934778359237536117877415265531303199884416298128816417463005818401571651928811660349042923778709905765136437907738968116146877988023087126972684920254276232987L
sS'q'
p5
L1453973278266405413178663206530693128298475096399L
sS'g'
p6
L63745117750542925873941009167569283675752985294839329191431977747543118976942002595225578470498067732856629709118138980608434081669539533573394191342178511683148123613763177039065302485147523281695108592108625330513757424545035082465797270248909925916482266035977516523934882824988924982102593425805175224049L
sS'x'
p7
L1424508319075753600077840240628612244031064403076L
sb.L590108217057995444212631996067421145597984529202L
.